target datalayout = "e-m:e-p270:32:32-p271:32:32-p272:64:64-i64:64-i128:128-f80:128-n8:16:32:64-S128"
target triple = "x86_64-pc-linux-gnu"

%"class.std::basic_ios" = type { %"class.std::ios_base", ptr, i8, i8, ptr, ptr, ptr, ptr }
%"class.std::ios_base" = type { ptr, i64, i64, i32, i32, i32, ptr, %"struct.std::ios_base::_Words", [8 x %"struct.std::ios_base::_Words"], i32, ptr, %"class.std::locale" }
%"struct.std::ios_base::_Words" = type { ptr, i64 }
%"class.std::locale" = type { ptr }
%"class.std::basic_istream.base" = type { ptr, i64 }
%"class.std::basic_streambuf" = type { ptr, ptr, ptr, ptr, ptr, ptr, ptr, %"class.std::locale" }
%"class.std::basic_ifstream" = type { %"class.std::basic_istream.base", %"class.std::basic_filebuf", %"class.std::basic_ios" }
%"class.std::basic_filebuf" = type { %"class.std::basic_streambuf", %union.pthread_mutex_t, %"class.std::__basic_file", i32, %struct.__mbstate_t, %struct.__mbstate_t, %struct.__mbstate_t, ptr, i64, i8, i8, i8, i8, ptr, ptr, i8, ptr, ptr, i64, ptr, ptr }
%union.pthread_mutex_t = type { %struct.__pthread_mutex_s }
%struct.__pthread_mutex_s = type { i32, i32, i32, i32, i32, i16, i16, %struct.__pthread_internal_list }
%struct.__pthread_internal_list = type { ptr, ptr }
%"class.std::__basic_file" = type <{ ptr, i8, [7 x i8] }>
%struct.__mbstate_t = type { i32, %union.anon.44 }
%union.anon.44 = type { i32 }

; Function Attrs: inlinehint mustprogress nounwind uwtable
define linkonce_odr dso_local noundef i32 @_ZStanSt12_Ios_IostateS_(i32 noundef %0, i32 noundef %1) #10 comdat {
  %3 = alloca i32, align 4
  %4 = alloca i32, align 4
  store i32 %0, ptr %3, align 4, !tbaa !387
  store i32 %1, ptr %4, align 4, !tbaa !387
  %5 = load i32, ptr %3, align 4, !tbaa !387
  %6 = load i32, ptr %4, align 4, !tbaa !387
  %7 = and i32 %5, %6
  ret i32 %7
}

; Function Attrs: inlinehint mustprogress nounwind uwtable
define linkonce_odr dso_local noundef i32 @_ZStorSt12_Ios_IostateS_(i32 noundef %0, i32 noundef %1) #10 comdat {
  %3 = alloca i32, align 4
  %4 = alloca i32, align 4
  store i32 %0, ptr %3, align 4, !tbaa !387
  store i32 %1, ptr %4, align 4, !tbaa !387
  %5 = load i32, ptr %3, align 4, !tbaa !387
  %6 = load i32, ptr %4, align 4, !tbaa !387
  %7 = or i32 %5, %6
  ret i32 %7
}

; Function Attrs: mustprogress nounwind uwtable
define available_externally noundef i32 @_ZNKSt9basic_iosIcSt11char_traitsIcEE7rdstateEv(ptr noundef nonnull align 8 dereferenceable(264) %0) #5 align 2 {
  %2 = alloca ptr, align 8
  store ptr %0, ptr %2, align 8, !tbaa !203
  %3 = load ptr, ptr %2, align 8
  %4 = getelementptr inbounds nuw %"class.std::ios_base", ptr %3, i32 0, i32 5
  %5 = load i32, ptr %4, align 8, !tbaa !388
  ret i32 %5
}

; Function Attrs: mustprogress uwtable
define available_externally noundef zeroext i1 @_ZNKSt9basic_iosIcSt11char_traitsIcEE4failEv(ptr noundef nonnull align 8 dereferenceable(264) %0) #6 align 2 {
  %2 = alloca ptr, align 8
  store ptr %0, ptr %2, align 8, !tbaa !203
  %3 = load ptr, ptr %2, align 8
  %4 = call noundef i32 @_ZNKSt9basic_iosIcSt11char_traitsIcEE7rdstateEv(ptr noundef nonnull align 8 dereferenceable(264) %3)
  %5 = call noundef i32 @_ZStorSt12_Ios_IostateS_(i32 noundef 1, i32 noundef 4)
  %6 = call noundef i32 @_ZStanSt12_Ios_IostateS_(i32 noundef %4, i32 noundef %5)
  %7 = icmp ne i32 %6, 0
  ret i1 %7
}

; Function Attrs: mustprogress uwtable
define available_externally noundef zeroext i1 @_ZNKSt9basic_iosIcSt11char_traitsIcEEntEv(ptr noundef nonnull align 8 dereferenceable(264) %0) #6 align 2 {
  %2 = alloca ptr, align 8
  store ptr %0, ptr %2, align 8, !tbaa !203
  %3 = load ptr, ptr %2, align 8
  %4 = call noundef zeroext i1 @_ZNKSt9basic_iosIcSt11char_traitsIcEE4failEv(ptr noundef nonnull align 8 dereferenceable(264) %3)
  ret i1 %4
}

; Function Attrs: mustprogress uwtable
define dso_local noundef zeroext i1 @_Z19isThisAnOpenExrFilePKc(ptr noundef %0) #6 personality ptr @__gxx_personality_v0 {
  %2 = alloca ptr, align 8
  %3 = alloca %"class.std::basic_ifstream", align 8
  %4 = alloca [4 x i8], align 1
  %5 = alloca ptr, align 8
  %6 = alloca i32, align 4
  store ptr %0, ptr %2, align 8, !tbaa !11
  call void @llvm.lifetime.start.p0(i64 520, ptr %3) #3
  %7 = load ptr, ptr %2, align 8, !tbaa !11
  call void @_ZNSt14basic_ifstreamIcSt11char_traitsIcEEC1EPKcSt13_Ios_Openmode(ptr noundef nonnull align 8 dereferenceable(256) %3, ptr noundef %7, i32 noundef 4)
  call void @llvm.lifetime.start.p0(i64 4, ptr %4) #3
  %8 = getelementptr inbounds [4 x i8], ptr %4, i64 0, i64 0
  %9 = invoke noundef nonnull align 8 dereferenceable(16) ptr @_ZNSi4readEPcl(ptr noundef nonnull align 8 dereferenceable(16) %3, ptr noundef %8, i64 noundef 4)
          to label %10 unwind label %39

10:                                               ; preds = %1
  %11 = load ptr, ptr %3, align 8, !tbaa !33
  %12 = getelementptr i8, ptr %11, i64 -24
  %13 = load i64, ptr %12, align 8
  %14 = getelementptr inbounds i8, ptr %3, i64 %13
  %15 = invoke noundef zeroext i1 @_ZNKSt9basic_iosIcSt11char_traitsIcEEntEv(ptr noundef nonnull align 8 dereferenceable(264) %14)
          to label %16 unwind label %39

16:                                               ; preds = %10
  br i1 %15, label %37, label %17

17:                                               ; preds = %16
  %18 = getelementptr inbounds [4 x i8], ptr %4, i64 0, i64 0
  %19 = load i8, ptr %18, align 1, !tbaa !198
  %20 = sext i8 %19 to i32
  %21 = icmp eq i32 %20, 118
  br i1 %21, label %22, label %37

22:                                               ; preds = %17
  %23 = getelementptr inbounds [4 x i8], ptr %4, i64 0, i64 1
  %24 = load i8, ptr %23, align 1, !tbaa !198
  %25 = sext i8 %24 to i32
  %26 = icmp eq i32 %25, 47
  br i1 %26, label %27, label %37

27:                                               ; preds = %22
  %28 = getelementptr inbounds [4 x i8], ptr %4, i64 0, i64 2
  %29 = load i8, ptr %28, align 1, !tbaa !198
  %30 = sext i8 %29 to i32
  %31 = icmp eq i32 %30, 49
  br i1 %31, label %32, label %37

32:                                               ; preds = %27
  %33 = getelementptr inbounds [4 x i8], ptr %4, i64 0, i64 3
  %34 = load i8, ptr %33, align 1, !tbaa !198
  %35 = sext i8 %34 to i32
  %36 = icmp eq i32 %35, 1
  br label %37

37:                                               ; preds = %32, %27, %22, %17, %16
  %38 = phi i1 [ false, %27 ], [ false, %22 ], [ false, %17 ], [ false, %16 ], [ %36, %32 ]
  call void @llvm.lifetime.end.p0(i64 4, ptr %4) #3
  call void @_ZNSt14basic_ifstreamIcSt11char_traitsIcEED1Ev(ptr noundef nonnull align 8 dereferenceable(256) %3) #3
  call void @llvm.lifetime.end.p0(i64 520, ptr %3) #3
  ret i1 %38

39:                                               ; preds = %10, %1
  %40 = landingpad { ptr, i32 }
          cleanup
  %41 = extractvalue { ptr, i32 } %40, 0
  store ptr %41, ptr %5, align 8
  %42 = extractvalue { ptr, i32 } %40, 1
  store i32 %42, ptr %6, align 4
  call void @llvm.lifetime.end.p0(i64 4, ptr %4) #3
  call void @_ZNSt14basic_ifstreamIcSt11char_traitsIcEED1Ev(ptr noundef nonnull align 8 dereferenceable(256) %3) #3
  call void @llvm.lifetime.end.p0(i64 520, ptr %3) #3
  br label %43

43:                                               ; preds = %39
  %44 = load ptr, ptr %5, align 8
  %45 = load i32, ptr %6, align 4
  %46 = insertvalue { ptr, i32 } poison, ptr %44, 0
  %47 = insertvalue { ptr, i32 } %46, i32 %45, 1
  resume { ptr, i32 } %47
}