; Function Attrs: mustprogress uwtable
define dso_local noundef zeroext i1 @_Z19isThisAnOpenExrFilePKc(ptr noundef %0) local_unnamed_addr #8 personality ptr @__gxx_personality_v0 {
  %2 = alloca %"class.std::basic_ifstream", align 8
  %3 = alloca [4 x i8], align 1
  call void @llvm.lifetime.start.p0(i64 520, ptr nonnull %2) #36
  call void @_ZNSt14basic_ifstreamIcSt11char_traitsIcEEC1EPKcSt13_Ios_Openmode(ptr noundef nonnull align 8 dereferenceable(256) %2, ptr noundef %0, i32 noundef 4)
  call void @llvm.lifetime.start.p0(i64 4, ptr nonnull %3) #36
  %4 = invoke noundef nonnull align 8 dereferenceable(16) ptr @_ZNSi4readEPcl(ptr noundef nonnull align 8 dereferenceable(16) %2, ptr noundef nonnull %3, i64 noundef 4)
          to label %5 unwind label %27

5:                                                ; preds = %1
  %6 = load ptr, ptr %2, align 8, !tbaa !15
  %7 = getelementptr i8, ptr %6, i64 -24
  %8 = load i64, ptr %7, align 8
  %9 = getelementptr inbounds i8, ptr %2, i64 %8
  %10 = getelementptr inbounds nuw i8, ptr %9, i64 32
  %11 = load i32, ptr %10, align 8, !tbaa !20
  %12 = and i32 %11, 5
  %.not13 = icmp eq i32 %12, 0
  %13 = load i8, ptr %3, align 1
  %14 = icmp eq i8 %13, 118
  %or.cond = select i1 %.not13, i1 %14, i1 false
  %15 = getelementptr inbounds nuw i8, ptr %3, i64 1
  %16 = load i8, ptr %15, align 1
  %17 = icmp eq i8 %16, 47
  %or.cond7 = select i1 %or.cond, i1 %17, i1 false
  %18 = getelementptr inbounds nuw i8, ptr %3, i64 2
  %19 = load i8, ptr %18, align 1
  %20 = icmp eq i8 %19, 49
  %or.cond11 = select i1 %or.cond7, i1 %20, i1 false
  br i1 %or.cond11, label %21, label %25

21:                                               ; preds = %5
  %22 = getelementptr inbounds nuw i8, ptr %3, i64 3
  %23 = load i8, ptr %22, align 1, !tbaa !39
  %24 = icmp eq i8 %23, 1
  br label %25

25:                                               ; preds = %21, %5
  %26 = phi i1 [ false, %5 ], [ %24, %21 ]
  call void @llvm.lifetime.end.p0(i64 4, ptr nonnull %3) #36
  call void @_ZNSt14basic_ifstreamIcSt11char_traitsIcEED1Ev(ptr noundef nonnull align 8 dereferenceable(256) %2) #36
  call void @llvm.lifetime.end.p0(i64 520, ptr nonnull %2) #36
  ret i1 %26

27:                                               ; preds = %1
  %28 = landingpad { ptr, i32 }
          cleanup
  call void @llvm.lifetime.end.p0(i64 4, ptr nonnull %3) #36
  call void @_ZNSt14basic_ifstreamIcSt11char_traitsIcEED1Ev(ptr noundef nonnull align 8 dereferenceable(256) %2) #36
  call void @llvm.lifetime.end.p0(i64 520, ptr nonnull %2) #36
  resume { ptr, i32 } %28
}